; ModuleID = '45/585.c'
source_filename = "45/585.c"
target datalayout = "e-m:e-p270:32:32-p271:32:32-p272:64:64-i64:64-f80:128-n8:16:32:64-S128"
target triple = "x86_64-pc-linux-gnu"

@.str = private unnamed_addr constant [6 x i8] c"%s %s\00", align 1
@.str.1 = private unnamed_addr constant [3 x i8] c"%d\00", align 1

; Function Attrs: noinline nounwind uwtable
define dso_local i32 @main() #0 {
  %1 = alloca i32, align 4
  %2 = alloca [50 x i8], align 16
  %3 = alloca [50 x i8], align 16
  %4 = alloca i8*, align 8
  %5 = alloca i8*, align 8
  %6 = alloca i32, align 4
  %7 = alloca i32, align 4
  %8 = alloca i32, align 4
  %9 = alloca i32, align 4
  %10 = alloca i32, align 4
  %11 = alloca i32, align 4
  store i32 0, i32* %1, align 4
  %12 = getelementptr inbounds [50 x i8], [50 x i8]* %2, i64 0, i64 0
  %13 = getelementptr inbounds [50 x i8], [50 x i8]* %3, i64 0, i64 0
  %14 = call i32 (i8*, ...) @__isoc99_scanf(i8* getelementptr inbounds ([6 x i8], [6 x i8]* @.str, i64 0, i64 0), i8* %12, i8* %13)
  %15 = getelementptr inbounds [50 x i8], [50 x i8]* %2, i64 0, i64 0
  store i8* %15, i8** %4, align 8
  %16 = getelementptr inbounds [50 x i8], [50 x i8]* %3, i64 0, i64 0
  store i8* %16, i8** %5, align 8
  %17 = getelementptr inbounds [50 x i8], [50 x i8]* %2, i64 0, i64 0
  %18 = call i64 @strlen(i8* %17) #3
  %19 = trunc i64 %18 to i32
  store i32 %19, i32* %6, align 4
  %20 = getelementptr inbounds [50 x i8], [50 x i8]* %3, i64 0, i64 0
  %21 = call i64 @strlen(i8* %20) #3
  %22 = trunc i64 %21 to i32
  store i32 %22, i32* %7, align 4
  store i32 0, i32* %9, align 4
  br label %23

23:                                               ; preds = %78, %0
  %24 = load i32, i32* %9, align 4
  %25 = load i32, i32* %7, align 4
  %26 = icmp slt i32 %24, %25
  br i1 %26, label %27, label %81

27:                                               ; preds = %23
  %28 = load i8*, i8** %5, align 8
  %29 = load i32, i32* %9, align 4
  %30 = sext i32 %29 to i64
  %31 = getelementptr inbounds i8, i8* %28, i64 %30
  %32 = load i8, i8* %31, align 1
  %33 = sext i8 %32 to i32
  %34 = load i8*, i8** %4, align 8
  %35 = load i8, i8* %34, align 1
  %36 = sext i8 %35 to i32
  %37 = icmp eq i32 %33, %36
  br i1 %37, label %38, label %77

38:                                               ; preds = %27
  %39 = load i32, i32* %9, align 4
  store i32 %39, i32* %8, align 4
  store i32 1, i32* %11, align 4
  %40 = load i32, i32* %8, align 4
  store i32 %40, i32* %10, align 4
  br label %41

41:                                               ; preds = %67, %38
  %42 = load i32, i32* %10, align 4
  %43 = load i32, i32* %8, align 4
  %44 = load i32, i32* %6, align 4
  %45 = add nsw i32 %43, %44
  %46 = icmp slt i32 %42, %45
  br i1 %46, label %47, label %70

47:                                               ; preds = %41
  %48 = load i8*, i8** %5, align 8
  %49 = load i32, i32* %10, align 4
  %50 = sext i32 %49 to i64
  %51 = getelementptr inbounds i8, i8* %48, i64 %50
  %52 = load i8, i8* %51, align 1
  %53 = sext i8 %52 to i32
  %54 = load i8*, i8** %4, align 8
  %55 = load i32, i32* %10, align 4
  %56 = sext i32 %55 to i64
  %57 = getelementptr inbounds i8, i8* %54, i64 %56
  %58 = load i32, i32* %8, align 4
  %59 = sext i32 %58 to i64
  %60 = sub i64 0, %59
  %61 = getelementptr inbounds i8, i8* %57, i64 %60
  %62 = load i8, i8* %61, align 1
  %63 = sext i8 %62 to i32
  %64 = icmp ne i32 %53, %63
  br i1 %64, label %65, label %66

65:                                               ; preds = %47
  store i32 0, i32* %11, align 4
  br label %70

66:                                               ; preds = %47
  br label %67

67:                                               ; preds = %66
  %68 = load i32, i32* %10, align 4
  %69 = add nsw i32 %68, 1
  store i32 %69, i32* %10, align 4
  br label %41

70:                                               ; preds = %65, %41
  %71 = load i32, i32* %11, align 4
  %72 = icmp eq i32 %71, 1
  br i1 %72, label %73, label %76

73:                                               ; preds = %70
  %74 = load i32, i32* %8, align 4
  %75 = call i32 (i8*, ...) @printf(i8* getelementptr inbounds ([3 x i8], [3 x i8]* @.str.1, i64 0, i64 0), i32 %74)
  br label %81

76:                                               ; preds = %70
  br label %77

77:                                               ; preds = %76, %27
  br label %78

78:                                               ; preds = %77
  %79 = load i32, i32* %9, align 4
  %80 = add nsw i32 %79, 1
  store i32 %80, i32* %9, align 4
  br label %23

81:                                               ; preds = %73, %23
  ret i32 0
}

declare dso_local i32 @__isoc99_scanf(i8*, ...) #1

; Function Attrs: nounwind readonly
declare dso_local i64 @strlen(i8*) #2

declare dso_local i32 @printf(i8*, ...) #1


!llvm.module.flags = !{!0}
!llvm.ident = !{!1}

!0 = !{i32 1, !"wchar_size", i32 4}
!1 = !{!"clang version 10.0.0-4ubuntu1 "}
