; ModuleID = 'source-C-CXX/44/585.c'
source_filename = "source-C-CXX/44/585.c"
target datalayout = "e-m:e-p270:32:32-p271:32:32-p272:64:64-i64:64-f80:128-n8:16:32:64-S128"
target triple = "x86_64-pc-linux-gnu"

@.str = private unnamed_addr constant [6 x i8] c"%s %s\00", align 1
@.str.1 = private unnamed_addr constant [3 x i8] c"%d\00", align 1

; Function Attrs: nofree nounwind sspstrong uwtable
define dso_local i32 @main() local_unnamed_addr #0 {
  %1 = alloca [50 x i8], align 16
  %2 = alloca [50 x i8], align 16
  %3 = getelementptr inbounds [50 x i8], [50 x i8]* %1, i64 0, i64 0
  call void @llvm.lifetime.start.p0i8(i64 50, i8* nonnull %3) #4
  %4 = getelementptr inbounds [50 x i8], [50 x i8]* %2, i64 0, i64 0
  call void @llvm.lifetime.start.p0i8(i64 50, i8* nonnull %4) #4
  %5 = call i32 (i8*, ...) @__isoc99_scanf(i8* getelementptr inbounds ([6 x i8], [6 x i8]* @.str, i64 0, i64 0), i8* nonnull %3, i8* nonnull %4)
  %6 = call i64 @strlen(i8* noundef nonnull %3) #5
  %7 = call i64 @strlen(i8* noundef nonnull %4) #5
  %8 = trunc i64 %7 to i32
  %9 = load i8, i8* %3, align 16
  %10 = icmp sgt i32 %8, 0
  br i1 %10, label %11, label %46

11:                                               ; preds = %0
  %12 = trunc i64 %6 to i32
  %13 = and i64 %7, 4294967295
  %14 = icmp sgt i32 %12, 0
  %15 = getelementptr inbounds [50 x i8], [50 x i8]* %1, i64 0, i64 0
  %16 = load i8, i8* %15, align 16
  %17 = icmp eq i8 %9, %16
  br label %18

18:                                               ; preds = %11, %43
  %19 = phi i64 [ 0, %11 ], [ %44, %43 ]
  %20 = getelementptr inbounds [50 x i8], [50 x i8]* %2, i64 0, i64 %19
  %21 = load i8, i8* %20, align 1, !tbaa !5
  %22 = icmp eq i8 %21, %9
  br i1 %22, label %23, label %43

23:                                               ; preds = %18
  %24 = sub nsw i64 0, %19
  br i1 %14, label %25, label %40

25:                                               ; preds = %23
  %26 = add i64 %19, %6
  %27 = shl i64 %26, 32
  %28 = ashr exact i64 %27, 32
  br i1 %17, label %29, label %43

29:                                               ; preds = %25, %33
  %30 = phi i64 [ %31, %33 ], [ %19, %25 ]
  %31 = add nuw nsw i64 %30, 1
  %32 = icmp slt i64 %31, %28
  br i1 %32, label %33, label %40, !llvm.loop !8

33:                                               ; preds = %29
  %34 = getelementptr inbounds [50 x i8], [50 x i8]* %2, i64 0, i64 %31
  %35 = load i8, i8* %34, align 1, !tbaa !5
  %36 = getelementptr inbounds [50 x i8], [50 x i8]* %1, i64 0, i64 %31
  %37 = getelementptr inbounds i8, i8* %36, i64 %24
  %38 = load i8, i8* %37, align 1, !tbaa !5
  %39 = icmp eq i8 %35, %38
  br i1 %39, label %29, label %43

40:                                               ; preds = %23, %29
  %41 = trunc i64 %19 to i32
  %42 = call i32 (i8*, ...) @printf(i8* nonnull dereferenceable(1) getelementptr inbounds ([3 x i8], [3 x i8]* @.str.1, i64 0, i64 0), i32 %41)
  br label %46

43:                                               ; preds = %33, %25, %18
  %44 = add nuw nsw i64 %19, 1
  %45 = icmp eq i64 %44, %13
  br i1 %45, label %46, label %18, !llvm.loop !10

46:                                               ; preds = %43, %0, %40
  call void @llvm.lifetime.end.p0i8(i64 50, i8* nonnull %4) #4
  call void @llvm.lifetime.end.p0i8(i64 50, i8* nonnull %3) #4
  ret i32 0
}

; Function Attrs: argmemonly mustprogress nofree nosync nounwind willreturn
declare void @llvm.lifetime.start.p0i8(i64 immarg, i8* nocapture) #1

; Function Attrs: nofree nounwind
declare noundef i32 @__isoc99_scanf(i8* nocapture noundef readonly, ...) local_unnamed_addr #2

; Function Attrs: argmemonly mustprogress nofree nounwind readonly willreturn
declare i64 @strlen(i8* nocapture) local_unnamed_addr #3

; Function Attrs: nofree nounwind
declare noundef i32 @printf(i8* nocapture noundef readonly, ...) local_unnamed_addr #2

; Function Attrs: argmemonly mustprogress nofree nosync nounwind willreturn
declare void @llvm.lifetime.end.p0i8(i64 immarg, i8* nocapture) #1


!llvm.module.flags = !{!0, !1, !2, !3}
!llvm.ident = !{!4}

!0 = !{i32 1, !"wchar_size", i32 4}
!1 = !{i32 7, !"PIC Level", i32 2}
!2 = !{i32 7, !"PIE Level", i32 2}
!3 = !{i32 7, !"uwtable", i32 1}
!4 = !{!"clang version 13.0.0"}
!5 = !{!6, !6, i64 0}
!6 = !{!"omnipotent char", !7, i64 0}
!7 = !{!"Simple C/C++ TBAA"}
!8 = distinct !{!8, !9}
!9 = !{!"llvm.loop.mustprogress"}
!10 = distinct !{!10, !9}
